target datalayout = "e-m:e-p270:32:32-p271:32:32-p272:64:64-i64:64-i128:128-f80:128-n8:16:32:64-S128"
target triple = "x86_64-pc-linux-gnu"

%struct._address = type { i32, i32, ptr, ptr }
%struct._packet_info = type { ptr, ptr, i32, i32, %struct.nstime_t, %struct.nstime_t, %struct.nstime_t, i8, ptr, ptr, ptr, ptr, %struct._address, %struct._address, %struct._address, %struct._address, %struct._address, %struct._address, i32, ptr, i8, [3 x i8], %struct.anon, i32, i32, i32, i32, ptr, i8, ptr, ptr, i16, i16, i32, i32, i16, i32, i32, ptr, ptr, ptr, i8, i8, i16, i16, i16, i32, i16, i16, ptr, ptr, ptr, ptr, ptr, i32, i32 }
%struct.nstime_t = type { i64, i32 }
%struct.anon = type { i8, [3 x i8] }
%struct._radius_info_t = type { i32, i32, %struct.nstime_t, i8, i8, i32, i32 }
%struct._rtd_data_t = type { %struct._rtd_stat_table, ptr }
%struct._rtd_stat_table = type { ptr, i32, ptr }
%struct._rtd_timestat = type { i32, ptr, i32, i32, i32, i32 }
%struct._timestat_t = type { i32, i32, i32, %struct.nstime_t, %struct.nstime_t, %struct.nstime_t, double }

; Function Attrs: null_pointer_is_valid sspstrong uwtable
define internal i32 @radiusstat_packet(ptr noundef %0, ptr noundef %1, ptr noundef %2, ptr noundef %3, i32 noundef %4) #0 {
  %6 = alloca ptr, align 8
  %7 = alloca ptr, align 8
  %8 = alloca ptr, align 8
  %9 = alloca ptr, align 8
  %10 = alloca i32, align 4
  %11 = alloca ptr, align 8
  %12 = alloca ptr, align 8
  %13 = alloca ptr, align 8
  %14 = alloca %struct.nstime_t, align 8
  %15 = alloca i32, align 4
  %16 = alloca i32, align 4
  store ptr %0, ptr %6, align 8
  store ptr %1, ptr %7, align 8
  store ptr %2, ptr %8, align 8
  store ptr %3, ptr %9, align 8
  store i32 %4, ptr %10, align 4
  call void @llvm.lifetime.start.p0(i64 8, ptr %11) #17
  %17 = load ptr, ptr %6, align 8
  store ptr %17, ptr %11, align 8
  call void @llvm.lifetime.start.p0(i64 8, ptr %12) #17
  %18 = load ptr, ptr %11, align 8
  %19 = getelementptr inbounds nuw %struct._rtd_data_t, ptr %18, i32 0, i32 0
  store ptr %19, ptr %12, align 8
  call void @llvm.lifetime.start.p0(i64 8, ptr %13) #17
  %20 = load ptr, ptr %9, align 8
  store ptr %20, ptr %13, align 8
  call void @llvm.lifetime.start.p0(i64 16, ptr %14) #17
  call void @llvm.lifetime.start.p0(i64 4, ptr %15) #17
  store i32 10, ptr %15, align 4
  call void @llvm.lifetime.start.p0(i64 4, ptr %16) #17
  store i32 0, ptr %16, align 4
  %21 = load ptr, ptr %13, align 8
  %22 = getelementptr inbounds nuw %struct._radius_info_t, ptr %21, i32 0, i32 0
  %23 = load i32, ptr %22, align 8
  switch i32 %23, label %33 [
    i32 1, label %24
    i32 2, label %24
    i32 3, label %24
    i32 4, label %25
    i32 5, label %25
    i32 7, label %26
    i32 8, label %26
    i32 9, label %26
    i32 21, label %27
    i32 22, label %27
    i32 23, label %28
    i32 24, label %28
    i32 26, label %29
    i32 27, label %29
    i32 33, label %30
    i32 34, label %30
    i32 40, label %31
    i32 41, label %31
    i32 42, label %31
    i32 43, label %32
    i32 44, label %32
    i32 45, label %32
  ]

24:                                               ; preds = %5, %5, %5
  store i32 1, ptr %15, align 4
  br label %33

25:                                               ; preds = %5, %5
  store i32 2, ptr %15, align 4
  br label %33

26:                                               ; preds = %5, %5, %5
  store i32 3, ptr %15, align 4
  br label %33

27:                                               ; preds = %5, %5
  store i32 4, ptr %15, align 4
  br label %33

28:                                               ; preds = %5, %5
  store i32 5, ptr %15, align 4
  br label %33

29:                                               ; preds = %5, %5
  store i32 6, ptr %15, align 4
  br label %33

30:                                               ; preds = %5, %5
  store i32 7, ptr %15, align 4
  br label %33

31:                                               ; preds = %5, %5, %5
  store i32 8, ptr %15, align 4
  br label %33

32:                                               ; preds = %5, %5, %5
  store i32 9, ptr %15, align 4
  br label %33

33:                                               ; preds = %5, %32, %31, %30, %29, %28, %27, %26, %25, %24
  %34 = load ptr, ptr %13, align 8
  %35 = getelementptr inbounds nuw %struct._radius_info_t, ptr %34, i32 0, i32 0
  %36 = load i32, ptr %35, align 8
  switch i32 %36, label %162 [
    i32 1, label %37
    i32 4, label %37
    i32 7, label %37
    i32 33, label %37
    i32 40, label %37
    i32 43, label %37
    i32 2, label %77
    i32 3, label %77
    i32 5, label %77
    i32 8, label %77
    i32 9, label %77
    i32 34, label %77
    i32 41, label %77
    i32 42, label %77
    i32 44, label %77
    i32 45, label %77
  ]

37:                                               ; preds = %33, %33, %33, %33, %33, %33
  %38 = load ptr, ptr %13, align 8
  %39 = getelementptr inbounds nuw %struct._radius_info_t, ptr %38, i32 0, i32 3
  %40 = load i8, ptr %39, align 8, !range !6, !noundef !7
  %41 = trunc i8 %40 to i1
  br i1 %41, label %42, label %59

42:                                               ; preds = %37
  %43 = load ptr, ptr %12, align 8
  %44 = getelementptr inbounds nuw %struct._rtd_stat_table, ptr %43, i32 0, i32 2
  %45 = load ptr, ptr %44, align 8
  %46 = getelementptr %struct._rtd_timestat, ptr %45, i64 0
  %47 = getelementptr inbounds nuw %struct._rtd_timestat, ptr %46, i32 0, i32 4
  %48 = load i32, ptr %47, align 8
  %49 = add i32 %48, 1
  store i32 %49, ptr %47, align 8
  %50 = load ptr, ptr %12, align 8
  %51 = getelementptr inbounds nuw %struct._rtd_stat_table, ptr %50, i32 0, i32 2
  %52 = load ptr, ptr %51, align 8
  %53 = load i32, ptr %15, align 4
  %54 = zext i32 %53 to i64
  %55 = getelementptr %struct._rtd_timestat, ptr %52, i64 %54
  %56 = getelementptr inbounds nuw %struct._rtd_timestat, ptr %55, i32 0, i32 4
  %57 = load i32, ptr %56, align 8
  %58 = add i32 %57, 1
  store i32 %58, ptr %56, align 8
  br label %76

59:                                               ; preds = %37
  %60 = load ptr, ptr %12, align 8
  %61 = getelementptr inbounds nuw %struct._rtd_stat_table, ptr %60, i32 0, i32 2
  %62 = load ptr, ptr %61, align 8
  %63 = getelementptr %struct._rtd_timestat, ptr %62, i64 0
  %64 = getelementptr inbounds nuw %struct._rtd_timestat, ptr %63, i32 0, i32 2
  %65 = load i32, ptr %64, align 8
  %66 = add i32 %65, 1
  store i32 %66, ptr %64, align 8
  %67 = load ptr, ptr %12, align 8
  %68 = getelementptr inbounds nuw %struct._rtd_stat_table, ptr %67, i32 0, i32 2
  %69 = load ptr, ptr %68, align 8
  %70 = load i32, ptr %15, align 4
  %71 = zext i32 %70 to i64
  %72 = getelementptr %struct._rtd_timestat, ptr %69, i64 %71
  %73 = getelementptr inbounds nuw %struct._rtd_timestat, ptr %72, i32 0, i32 2
  %74 = load i32, ptr %73, align 8
  %75 = add i32 %74, 1
  store i32 %75, ptr %73, align 8
  br label %76

76:                                               ; preds = %59, %42
  br label %163

77:                                               ; preds = %33, %33, %33, %33, %33, %33, %33, %33, %33, %33
  %78 = load ptr, ptr %13, align 8
  %79 = getelementptr inbounds nuw %struct._radius_info_t, ptr %78, i32 0, i32 3
  %80 = load i8, ptr %79, align 8, !range !6, !noundef !7
  %81 = trunc i8 %80 to i1
  br i1 %81, label %82, label %99

82:                                               ; preds = %77
  %83 = load ptr, ptr %12, align 8
  %84 = getelementptr inbounds nuw %struct._rtd_stat_table, ptr %83, i32 0, i32 2
  %85 = load ptr, ptr %84, align 8
  %86 = getelementptr %struct._rtd_timestat, ptr %85, i64 0
  %87 = getelementptr inbounds nuw %struct._rtd_timestat, ptr %86, i32 0, i32 5
  %88 = load i32, ptr %87, align 4
  %89 = add i32 %88, 1
  store i32 %89, ptr %87, align 4
  %90 = load ptr, ptr %12, align 8
  %91 = getelementptr inbounds nuw %struct._rtd_stat_table, ptr %90, i32 0, i32 2
  %92 = load ptr, ptr %91, align 8
  %93 = load i32, ptr %15, align 4
  %94 = zext i32 %93 to i64
  %95 = getelementptr %struct._rtd_timestat, ptr %92, i64 %94
  %96 = getelementptr inbounds nuw %struct._rtd_timestat, ptr %95, i32 0, i32 5
  %97 = load i32, ptr %96, align 4
  %98 = add i32 %97, 1
  store i32 %98, ptr %96, align 4
  br label %161

99:                                               ; preds = %77
  %100 = load ptr, ptr %13, align 8
  %101 = getelementptr inbounds nuw %struct._radius_info_t, ptr %100, i32 0, i32 4
  %102 = load i8, ptr %101, align 1, !range !6, !noundef !7
  %103 = trunc i8 %102 to i1
  br i1 %103, label %121, label %104

104:                                              ; preds = %99
  %105 = load ptr, ptr %12, align 8
  %106 = getelementptr inbounds nuw %struct._rtd_stat_table, ptr %105, i32 0, i32 2
  %107 = load ptr, ptr %106, align 8
  %108 = getelementptr %struct._rtd_timestat, ptr %107, i64 0
  %109 = getelementptr inbounds nuw %struct._rtd_timestat, ptr %108, i32 0, i32 3
  %110 = load i32, ptr %109, align 4
  %111 = add i32 %110, 1
  store i32 %111, ptr %109, align 4
  %112 = load ptr, ptr %12, align 8
  %113 = getelementptr inbounds nuw %struct._rtd_stat_table, ptr %112, i32 0, i32 2
  %114 = load ptr, ptr %113, align 8
  %115 = load i32, ptr %15, align 4
  %116 = zext i32 %115 to i64
  %117 = getelementptr %struct._rtd_timestat, ptr %114, i64 %116
  %118 = getelementptr inbounds nuw %struct._rtd_timestat, ptr %117, i32 0, i32 3
  %119 = load i32, ptr %118, align 4
  %120 = add i32 %119, 1
  store i32 %120, ptr %118, align 4
  br label %160

121:                                              ; preds = %99
  %122 = load ptr, ptr %12, align 8
  %123 = getelementptr inbounds nuw %struct._rtd_stat_table, ptr %122, i32 0, i32 2
  %124 = load ptr, ptr %123, align 8
  %125 = getelementptr %struct._rtd_timestat, ptr %124, i64 0
  %126 = getelementptr inbounds nuw %struct._rtd_timestat, ptr %125, i32 0, i32 2
  %127 = load i32, ptr %126, align 8
  %128 = add i32 %127, -1
  store i32 %128, ptr %126, align 8
  %129 = load ptr, ptr %12, align 8
  %130 = getelementptr inbounds nuw %struct._rtd_stat_table, ptr %129, i32 0, i32 2
  %131 = load ptr, ptr %130, align 8
  %132 = load i32, ptr %15, align 4
  %133 = zext i32 %132 to i64
  %134 = getelementptr %struct._rtd_timestat, ptr %131, i64 %133
  %135 = getelementptr inbounds nuw %struct._rtd_timestat, ptr %134, i32 0, i32 2
  %136 = load i32, ptr %135, align 8
  %137 = add i32 %136, -1
  store i32 %137, ptr %135, align 8
  %138 = load ptr, ptr %7, align 8
  %139 = getelementptr inbounds nuw %struct._packet_info, ptr %138, i32 0, i32 4
  %140 = load ptr, ptr %13, align 8
  %141 = getelementptr inbounds nuw %struct._radius_info_t, ptr %140, i32 0, i32 2
  call void @nstime_delta(ptr noundef %14, ptr noundef %139, ptr noundef %141)
  %142 = load ptr, ptr %12, align 8
  %143 = getelementptr inbounds nuw %struct._rtd_stat_table, ptr %142, i32 0, i32 2
  %144 = load ptr, ptr %143, align 8
  %145 = getelementptr %struct._rtd_timestat, ptr %144, i64 0
  %146 = getelementptr inbounds nuw %struct._rtd_timestat, ptr %145, i32 0, i32 1
  %147 = load ptr, ptr %146, align 8
  %148 = getelementptr %struct._timestat_t, ptr %147, i64 0
  %149 = load ptr, ptr %7, align 8
  call void @time_stat_update(ptr noundef %148, ptr noundef %14, ptr noundef %149)
  %150 = load ptr, ptr %12, align 8
  %151 = getelementptr inbounds nuw %struct._rtd_stat_table, ptr %150, i32 0, i32 2
  %152 = load ptr, ptr %151, align 8
  %153 = load i32, ptr %15, align 4
  %154 = zext i32 %153 to i64
  %155 = getelementptr %struct._rtd_timestat, ptr %152, i64 %154
  %156 = getelementptr inbounds nuw %struct._rtd_timestat, ptr %155, i32 0, i32 1
  %157 = load ptr, ptr %156, align 8
  %158 = getelementptr %struct._timestat_t, ptr %157, i64 0
  %159 = load ptr, ptr %7, align 8
  call void @time_stat_update(ptr noundef %158, ptr noundef %14, ptr noundef %159)
  store i32 1, ptr %16, align 4
  br label %160

160:                                              ; preds = %121, %104
  br label %161

161:                                              ; preds = %160, %82
  br label %163

162:                                              ; preds = %33
  br label %163

163:                                              ; preds = %162, %161, %76
  %164 = load i32, ptr %16, align 4
  call void @llvm.lifetime.end.p0(i64 4, ptr %16) #17
  call void @llvm.lifetime.end.p0(i64 4, ptr %15) #17
  call void @llvm.lifetime.end.p0(i64 16, ptr %14) #17
  call void @llvm.lifetime.end.p0(i64 8, ptr %13) #17
  call void @llvm.lifetime.end.p0(i64 8, ptr %12) #17
  call void @llvm.lifetime.end.p0(i64 8, ptr %11) #17
  ret i32 %164
}