; Function Attrs: null_pointer_is_valid sspstrong uwtable
define internal range(i32 0, 2) i32 @radiusstat_packet(ptr noundef readonly captures(none) %0, ptr noundef %1, ptr readnone captures(none) %2, ptr noundef %3, i32 %4) #0 {
  %6 = alloca %struct.nstime_t, align 8
  call void @llvm.lifetime.start.p0(i64 16, ptr nonnull %6) #14
  %7 = load i32, ptr %3, align 8
  %switch.tableidx = add i32 %7, -1
  %8 = icmp ult i32 %switch.tableidx, 45
  br i1 %8, label %switch.lookup, label %10

switch.lookup:                                    ; preds = %5
  %9 = zext nneg i32 %switch.tableidx to i64
  %switch.gep = getelementptr inbounds nuw [45 x i64], ptr @switch.table.radiusstat_packet, i64 0, i64 %9
  %switch.load = load i64, ptr %switch.gep, align 8
  br label %10

10:                                               ; preds = %switch.lookup, %5
  %.030 = phi i64 [ 10, %5 ], [ %switch.load, %switch.lookup ]
  switch i32 %7, label %77 [
    i32 1, label %11
    i32 4, label %11
    i32 7, label %11
    i32 33, label %11
    i32 40, label %11
    i32 43, label %11
    i32 2, label %33
    i32 3, label %33
    i32 5, label %33
    i32 8, label %33
    i32 9, label %33
    i32 34, label %33
    i32 41, label %33
    i32 42, label %33
    i32 44, label %33
    i32 45, label %33
  ]

11:                                               ; preds = %10, %10, %10, %10, %10, %10
  %12 = getelementptr inbounds nuw i8, ptr %3, i64 24
  %13 = load i8, ptr %12, align 8, !range !6, !noundef !7
  %14 = trunc nuw i8 %13 to i1
  %15 = getelementptr inbounds nuw i8, ptr %0, i64 16
  %16 = load ptr, ptr %15, align 8
  br i1 %14, label %17, label %25

17:                                               ; preds = %11
  %18 = getelementptr inbounds nuw i8, ptr %16, i64 24
  %19 = load i32, ptr %18, align 8
  %20 = add i32 %19, 1
  store i32 %20, ptr %18, align 8
  %21 = load ptr, ptr %15, align 8
  %22 = getelementptr %struct._rtd_timestat, ptr %21, i64 %.030, i32 4
  %23 = load i32, ptr %22, align 8
  %24 = add i32 %23, 1
  store i32 %24, ptr %22, align 8
  br label %77

25:                                               ; preds = %11
  %26 = getelementptr inbounds nuw i8, ptr %16, i64 16
  %27 = load i32, ptr %26, align 8
  %28 = add i32 %27, 1
  store i32 %28, ptr %26, align 8
  %29 = load ptr, ptr %15, align 8
  %30 = getelementptr %struct._rtd_timestat, ptr %29, i64 %.030, i32 2
  %31 = load i32, ptr %30, align 8
  %32 = add i32 %31, 1
  store i32 %32, ptr %30, align 8
  br label %77

33:                                               ; preds = %10, %10, %10, %10, %10, %10, %10, %10, %10, %10
  %34 = getelementptr inbounds nuw i8, ptr %3, i64 24
  %35 = load i8, ptr %34, align 8, !range !6, !noundef !7
  %36 = trunc nuw i8 %35 to i1
  br i1 %36, label %37, label %47

37:                                               ; preds = %33
  %38 = getelementptr inbounds nuw i8, ptr %0, i64 16
  %39 = load ptr, ptr %38, align 8
  %40 = getelementptr inbounds nuw i8, ptr %39, i64 28
  %41 = load i32, ptr %40, align 4
  %42 = add i32 %41, 1
  store i32 %42, ptr %40, align 4
  %43 = load ptr, ptr %38, align 8
  %44 = getelementptr %struct._rtd_timestat, ptr %43, i64 %.030, i32 5
  %45 = load i32, ptr %44, align 4
  %46 = add i32 %45, 1
  store i32 %46, ptr %44, align 4
  br label %77

47:                                               ; preds = %33
  %48 = getelementptr inbounds nuw i8, ptr %3, i64 25
  %49 = load i8, ptr %48, align 1, !range !6, !noundef !7
  %50 = trunc nuw i8 %49 to i1
  %51 = getelementptr inbounds nuw i8, ptr %0, i64 16
  %52 = load ptr, ptr %51, align 8
  br i1 %50, label %61, label %53

53:                                               ; preds = %47
  %54 = getelementptr inbounds nuw i8, ptr %52, i64 20
  %55 = load i32, ptr %54, align 4
  %56 = add i32 %55, 1
  store i32 %56, ptr %54, align 4
  %57 = load ptr, ptr %51, align 8
  %58 = getelementptr %struct._rtd_timestat, ptr %57, i64 %.030, i32 3
  %59 = load i32, ptr %58, align 4
  %60 = add i32 %59, 1
  store i32 %60, ptr %58, align 4
  br label %77

61:                                               ; preds = %47
  %62 = getelementptr inbounds nuw i8, ptr %52, i64 16
  %63 = load i32, ptr %62, align 8
  %64 = add i32 %63, -1
  store i32 %64, ptr %62, align 8
  %65 = load ptr, ptr %51, align 8
  %66 = getelementptr %struct._rtd_timestat, ptr %65, i64 %.030, i32 2
  %67 = load i32, ptr %66, align 8
  %68 = add i32 %67, -1
  store i32 %68, ptr %66, align 8
  %69 = getelementptr inbounds nuw i8, ptr %1, i64 24
  %70 = getelementptr inbounds nuw i8, ptr %3, i64 8
  call void @nstime_delta(ptr noundef nonnull %6, ptr noundef nonnull %69, ptr noundef nonnull %70)
  %71 = load ptr, ptr %51, align 8
  %72 = getelementptr inbounds nuw i8, ptr %71, i64 8
  %73 = load ptr, ptr %72, align 8
  call void @time_stat_update(ptr noundef %73, ptr noundef nonnull %6, ptr noundef %1)
  %74 = load ptr, ptr %51, align 8
  %75 = getelementptr %struct._rtd_timestat, ptr %74, i64 %.030, i32 1
  %76 = load ptr, ptr %75, align 8
  call void @time_stat_update(ptr noundef %76, ptr noundef nonnull %6, ptr noundef %1)
  br label %77

77:                                               ; preds = %10, %37, %61, %53, %17, %25
  %.0 = phi i32 [ 0, %10 ], [ 0, %37 ], [ 1, %61 ], [ 0, %53 ], [ 0, %17 ], [ 0, %25 ]
  call void @llvm.lifetime.end.p0(i64 16, ptr nonnull %6) #14
  ret i32 %.0
}